; Function Attrs: nounwind sspstrong uwtable
define internal void @vhost_user_gpu_instance_init(ptr noundef %obj) #0 {
entry:
  %call.i = tail call ptr @object_dynamic_cast_assert(ptr noundef %obj, ptr noundef nonnull @.str, ptr noundef nonnull @.str.4, i32 noundef 39, ptr noundef nonnull @__func__.VHOST_USER_GPU) #7
  %call1 = tail call ptr @object_new(ptr noundef nonnull @.str.2) #7
  %call.i3 = tail call ptr @object_dynamic_cast_assert(ptr noundef %call1, ptr noundef nonnull @.str.2, ptr noundef nonnull @.str.5, i32 noundef 26, ptr noundef nonnull @__func__.VHOST_USER_BACKEND) #7
  %vhost = getelementptr inbounds nuw i8, ptr %call.i, i64 2928
  store ptr %call.i3, ptr %vhost, align 16
  %call4 = tail call ptr @object_property_add_alias(ptr noundef %obj, ptr noundef nonnull @.str.3, ptr noundef %call.i3, ptr noundef nonnull @.str.3) #7
  ret void
}